; Function Attrs: mustprogress uwtable
define hidden noundef ptr @_Z29mk_simple_ast_printer_contextR11ast_manager(ptr noundef nonnull align 8 dereferenceable(976) %m) local_unnamed_addr #3 personality ptr @__gxx_personality_v0 {
entry:
  %call = tail call noalias noundef ptr @_ZN6memory8allocateEm(i64 noundef 24)
  store ptr getelementptr inbounds ({ [15 x ptr] }, ptr @_ZTV26simple_ast_printer_context, i64 0, i32 0, i64 2), ptr %call, align 8
  %m_manager.i = getelementptr inbounds i8, ptr %call, i64 8
  store ptr %m, ptr %m_manager.i, align 8
  %m_env.i = getelementptr inbounds i8, ptr %call, i64 16
  store ptr null, ptr %m_env.i, align 8
  %call.i = invoke noalias noundef ptr @_ZN6memory8allocateEm(i64 noundef 640)
          to label %invoke.cont3.i unwind label %lpad2.i

invoke.cont3.i:                                   ; preds = %entry
  invoke void @_ZN23smt2_pp_environment_dbgC2ER11ast_manager(ptr noundef nonnull align 8 dereferenceable(640) %call.i, ptr noundef nonnull align 8 dereferenceable(976) %m)
          to label %_ZN26simple_ast_printer_contextC2ER11ast_manager.exit unwind label %lpad2.i

lpad2.i:                                          ; preds = %invoke.cont3.i, %entry
  %0 = landingpad { ptr, i32 }
          cleanup
  tail call void @_ZN10scoped_ptrI23smt2_pp_environment_dbgED2Ev(ptr noundef nonnull align 8 dereferenceable(8) %m_env.i) #13
  resume { ptr, i32 } %0

_ZN26simple_ast_printer_contextC2ER11ast_manager.exit: ; preds = %invoke.cont3.i
  store ptr %call.i, ptr %m_env.i, align 8
  ret ptr %call
}